target datalayout = "e-m:e-p270:32:32-p271:32:32-p272:64:64-i64:64-i128:128-f80:128-n8:16:32:64-S128"
target triple = "x86_64-pc-linux-gnu"

%struct.sdshdr8 = type { i8, i8, i8, [0 x i8] }
%struct.sdshdr16 = type <{ i16, i16, i8, [0 x i8] }>
%struct.sdshdr32 = type <{ i32, i32, i8, [0 x i8] }>
%struct.sdshdr64 = type <{ i64, i64, i8, [0 x i8] }>

@.str.90 = private unnamed_addr constant [4 x i8] c" %s\00", align 1

; Function Attrs: inlinehint nounwind uwtable
define internal i64 @sdslen(ptr noundef %0) #11 {
  %2 = alloca i64, align 8
  %3 = alloca ptr, align 8
  %4 = alloca i8, align 1
  %5 = alloca i32, align 4
  store ptr %0, ptr %3, align 8, !tbaa !5
  call void @llvm.lifetime.start.p0(i64 1, ptr %4) #14
  %6 = load ptr, ptr %3, align 8, !tbaa !5
  %7 = getelementptr inbounds i8, ptr %6, i64 -1
  %8 = load i8, ptr %7, align 1, !tbaa !22
  store i8 %8, ptr %4, align 1, !tbaa !22
  %9 = load i8, ptr %4, align 1, !tbaa !22
  %10 = zext i8 %9 to i32
  %11 = and i32 %10, 7
  switch i32 %11, label %40 [
    i32 0, label %12
    i32 1, label %17
    i32 2, label %23
    i32 3, label %29
    i32 4, label %35
  ]

12:                                               ; preds = %1
  %13 = load i8, ptr %4, align 1, !tbaa !22
  %14 = zext i8 %13 to i32
  %15 = ashr i32 %14, 3
  %16 = sext i32 %15 to i64
  store i64 %16, ptr %2, align 8
  store i32 1, ptr %5, align 4
  br label %41

17:                                               ; preds = %1
  %18 = load ptr, ptr %3, align 8, !tbaa !5
  %19 = getelementptr inbounds i8, ptr %18, i64 -3
  %20 = getelementptr inbounds nuw %struct.sdshdr8, ptr %19, i32 0, i32 0
  %21 = load i8, ptr %20, align 1, !tbaa !22
  %22 = zext i8 %21 to i64
  store i64 %22, ptr %2, align 8
  store i32 1, ptr %5, align 4
  br label %41

23:                                               ; preds = %1
  %24 = load ptr, ptr %3, align 8, !tbaa !5
  %25 = getelementptr inbounds i8, ptr %24, i64 -5
  %26 = getelementptr inbounds nuw %struct.sdshdr16, ptr %25, i32 0, i32 0
  %27 = load i16, ptr %26, align 1, !tbaa !28
  %28 = zext i16 %27 to i64
  store i64 %28, ptr %2, align 8
  store i32 1, ptr %5, align 4
  br label %41

29:                                               ; preds = %1
  %30 = load ptr, ptr %3, align 8, !tbaa !5
  %31 = getelementptr inbounds i8, ptr %30, i64 -9
  %32 = getelementptr inbounds nuw %struct.sdshdr32, ptr %31, i32 0, i32 0
  %33 = load i32, ptr %32, align 1, !tbaa !17
  %34 = zext i32 %33 to i64
  store i64 %34, ptr %2, align 8
  store i32 1, ptr %5, align 4
  br label %41

35:                                               ; preds = %1
  %36 = load ptr, ptr %3, align 8, !tbaa !5
  %37 = getelementptr inbounds i8, ptr %36, i64 -17
  %38 = getelementptr inbounds nuw %struct.sdshdr64, ptr %37, i32 0, i32 0
  %39 = load i64, ptr %38, align 1, !tbaa !10
  store i64 %39, ptr %2, align 8
  store i32 1, ptr %5, align 4
  br label %41

40:                                               ; preds = %1
  store i64 0, ptr %2, align 8
  store i32 1, ptr %5, align 4
  br label %41

41:                                               ; preds = %40, %35, %29, %23, %17, %12
  call void @llvm.lifetime.end.p0(i64 1, ptr %4) #14
  %42 = load i64, ptr %2, align 8
  ret i64 %42
}

; Function Attrs: nounwind uwtable
define dso_local ptr @ACLMergeSelectorArguments(ptr noundef %0, i32 noundef %1, ptr noundef %2, ptr noundef %3) #0 {
  %5 = alloca ptr, align 8
  %6 = alloca ptr, align 8
  %7 = alloca i32, align 4
  %8 = alloca ptr, align 8
  %9 = alloca ptr, align 8
  %10 = alloca i32, align 4
  %11 = alloca ptr, align 8
  %12 = alloca ptr, align 8
  %13 = alloca i32, align 4
  %14 = alloca i32, align 4
  %15 = alloca ptr, align 8
  %16 = alloca i32, align 4
  store ptr %0, ptr %6, align 8, !tbaa !33
  store i32 %1, ptr %7, align 4, !tbaa !17
  store ptr %2, ptr %8, align 8, !tbaa !131
  store ptr %3, ptr %9, align 8, !tbaa !131
  %17 = load ptr, ptr %8, align 8, !tbaa !131
  store i32 0, ptr %17, align 4, !tbaa !17
  call void @llvm.lifetime.start.p0(i64 4, ptr %10) #14
  store i32 -1, ptr %10, align 4, !tbaa !17
  call void @llvm.lifetime.start.p0(i64 8, ptr %11) #14
  %18 = load i32, ptr %7, align 4, !tbaa !17
  %19 = sext i32 %18 to i64
  %20 = mul i64 8, %19
  %21 = call noalias ptr @zmalloc(i64 noundef %20) #13
  store ptr %21, ptr %11, align 8, !tbaa !33
  call void @llvm.lifetime.start.p0(i64 8, ptr %12) #14
  store ptr null, ptr %12, align 8, !tbaa !5
  call void @llvm.lifetime.start.p0(i64 4, ptr %13) #14
  store i32 0, ptr %13, align 4, !tbaa !17
  br label %22

22:                                               ; preds = %102, %4
  %23 = load i32, ptr %13, align 4, !tbaa !17
  %24 = load i32, ptr %7, align 4, !tbaa !17
  %25 = icmp slt i32 %23, %24
  br i1 %25, label %27, label %26

26:                                               ; preds = %22
  store i32 2, ptr %14, align 4
  call void @llvm.lifetime.end.p0(i64 4, ptr %13) #14
  br label %105

27:                                               ; preds = %22
  call void @llvm.lifetime.start.p0(i64 8, ptr %15) #14
  %28 = load ptr, ptr %6, align 8, !tbaa !33
  %29 = load i32, ptr %13, align 4, !tbaa !17
  %30 = sext i32 %29 to i64
  %31 = getelementptr inbounds ptr, ptr %28, i64 %30
  %32 = load ptr, ptr %31, align 8, !tbaa !5
  store ptr %32, ptr %15, align 8, !tbaa !5
  %33 = load i32, ptr %10, align 4, !tbaa !17
  %34 = icmp eq i32 %33, -1
  br i1 %34, label %35, label %58

35:                                               ; preds = %27
  %36 = load ptr, ptr %15, align 8, !tbaa !5
  %37 = getelementptr inbounds i8, ptr %36, i64 0
  %38 = load i8, ptr %37, align 1, !tbaa !22
  %39 = sext i8 %38 to i32
  %40 = icmp eq i32 %39, 40
  br i1 %40, label %41, label %58

41:                                               ; preds = %35
  %42 = load ptr, ptr %15, align 8, !tbaa !5
  %43 = load ptr, ptr %15, align 8, !tbaa !5
  %44 = call i64 @sdslen(ptr noundef %43)
  %45 = sub i64 %44, 1
  %46 = getelementptr inbounds nuw i8, ptr %42, i64 %45
  %47 = load i8, ptr %46, align 1, !tbaa !22
  %48 = sext i8 %47 to i32
  %49 = icmp ne i32 %48, 41
  br i1 %49, label %50, label %58

50:                                               ; preds = %41
  %51 = load ptr, ptr %6, align 8, !tbaa !33
  %52 = load i32, ptr %13, align 4, !tbaa !17
  %53 = sext i32 %52 to i64
  %54 = getelementptr inbounds ptr, ptr %51, i64 %53
  %55 = load ptr, ptr %54, align 8, !tbaa !5
  %56 = call ptr @sdsdup(ptr noundef %55)
  store ptr %56, ptr %12, align 8, !tbaa !5
  %57 = load i32, ptr %13, align 4, !tbaa !17
  store i32 %57, ptr %10, align 4, !tbaa !17
  store i32 4, ptr %14, align 4
  br label %99

58:                                               ; preds = %41, %35, %27
  %59 = load i32, ptr %10, align 4, !tbaa !17
  %60 = icmp ne i32 %59, -1
  br i1 %60, label %61, label %84

61:                                               ; preds = %58
  %62 = load ptr, ptr %12, align 8, !tbaa !5
  %63 = load ptr, ptr %15, align 8, !tbaa !5
  %64 = call ptr (ptr, ptr, ...) @sdscatfmt(ptr noundef %62, ptr noundef @.str.90, ptr noundef %63)
  store ptr %64, ptr %12, align 8, !tbaa !5
  %65 = load ptr, ptr %15, align 8, !tbaa !5
  %66 = load ptr, ptr %15, align 8, !tbaa !5
  %67 = call i64 @sdslen(ptr noundef %66)
  %68 = sub i64 %67, 1
  %69 = getelementptr inbounds nuw i8, ptr %65, i64 %68
  %70 = load i8, ptr %69, align 1, !tbaa !22
  %71 = sext i8 %70 to i32
  %72 = icmp eq i32 %71, 41
  br i1 %72, label %73, label %83

73:                                               ; preds = %61
  store i32 -1, ptr %10, align 4, !tbaa !17
  %74 = load ptr, ptr %12, align 8, !tbaa !5
  %75 = load ptr, ptr %11, align 8, !tbaa !33
  %76 = load ptr, ptr %8, align 8, !tbaa !131
  %77 = load i32, ptr %76, align 4, !tbaa !17
  %78 = sext i32 %77 to i64
  %79 = getelementptr inbounds ptr, ptr %75, i64 %78
  store ptr %74, ptr %79, align 8, !tbaa !5
  %80 = load ptr, ptr %8, align 8, !tbaa !131
  %81 = load i32, ptr %80, align 4, !tbaa !17
  %82 = add nsw i32 %81, 1
  store i32 %82, ptr %80, align 4, !tbaa !17
  br label %83

83:                                               ; preds = %73, %61
  store i32 4, ptr %14, align 4
  br label %99

84:                                               ; preds = %58
  %85 = load ptr, ptr %6, align 8, !tbaa !33
  %86 = load i32, ptr %13, align 4, !tbaa !17
  %87 = sext i32 %86 to i64
  %88 = getelementptr inbounds ptr, ptr %85, i64 %87
  %89 = load ptr, ptr %88, align 8, !tbaa !5
  %90 = call ptr @sdsdup(ptr noundef %89)
  %91 = load ptr, ptr %11, align 8, !tbaa !33
  %92 = load ptr, ptr %8, align 8, !tbaa !131
  %93 = load i32, ptr %92, align 4, !tbaa !17
  %94 = sext i32 %93 to i64
  %95 = getelementptr inbounds ptr, ptr %91, i64 %94
  store ptr %90, ptr %95, align 8, !tbaa !5
  %96 = load ptr, ptr %8, align 8, !tbaa !131
  %97 = load i32, ptr %96, align 4, !tbaa !17
  %98 = add nsw i32 %97, 1
  store i32 %98, ptr %96, align 4, !tbaa !17
  store i32 0, ptr %14, align 4
  br label %99

99:                                               ; preds = %84, %83, %50
  call void @llvm.lifetime.end.p0(i64 8, ptr %15) #14
  %100 = load i32, ptr %14, align 4
  switch i32 %100, label %137 [
    i32 0, label %101
    i32 4, label %102
  ]

101:                                              ; preds = %99
  br label %102

102:                                              ; preds = %101, %99
  %103 = load i32, ptr %13, align 4, !tbaa !17
  %104 = add nsw i32 %103, 1
  store i32 %104, ptr %13, align 4, !tbaa !17
  br label %22, !llvm.loop !209

105:                                              ; preds = %26
  %106 = load i32, ptr %10, align 4, !tbaa !17
  %107 = icmp ne i32 %106, -1
  br i1 %107, label %108, label %133

108:                                              ; preds = %105
  call void @llvm.lifetime.start.p0(i64 4, ptr %16) #14
  store i32 0, ptr %16, align 4, !tbaa !17
  br label %109

109:                                              ; preds = %121, %108
  %110 = load i32, ptr %16, align 4, !tbaa !17
  %111 = load ptr, ptr %8, align 8, !tbaa !131
  %112 = load i32, ptr %111, align 4, !tbaa !17
  %113 = icmp slt i32 %110, %112
  br i1 %113, label %115, label %114

114:                                              ; preds = %109
  store i32 5, ptr %14, align 4
  call void @llvm.lifetime.end.p0(i64 4, ptr %16) #14
  br label %124

115:                                              ; preds = %109
  %116 = load ptr, ptr %11, align 8, !tbaa !33
  %117 = load i32, ptr %16, align 4, !tbaa !17
  %118 = sext i32 %117 to i64
  %119 = getelementptr inbounds ptr, ptr %116, i64 %118
  %120 = load ptr, ptr %119, align 8, !tbaa !5
  call void @sdsfree(ptr noundef %120)
  br label %121

121:                                              ; preds = %115
  %122 = load i32, ptr %16, align 4, !tbaa !17
  %123 = add nsw i32 %122, 1
  store i32 %123, ptr %16, align 4, !tbaa !17
  br label %109, !llvm.loop !210

124:                                              ; preds = %114
  %125 = load ptr, ptr %11, align 8, !tbaa !33
  call void @zfree(ptr noundef %125)
  %126 = load ptr, ptr %12, align 8, !tbaa !5
  call void @sdsfree(ptr noundef %126)
  %127 = load ptr, ptr %9, align 8, !tbaa !131
  %128 = icmp ne ptr %127, null
  br i1 %128, label %129, label %132

129:                                              ; preds = %124
  %130 = load i32, ptr %10, align 4, !tbaa !17
  %131 = load ptr, ptr %9, align 8, !tbaa !131
  store i32 %130, ptr %131, align 4, !tbaa !17
  br label %132

132:                                              ; preds = %129, %124
  store ptr null, ptr %5, align 8
  store i32 1, ptr %14, align 4
  br label %135

133:                                              ; preds = %105
  %134 = load ptr, ptr %11, align 8, !tbaa !33
  store ptr %134, ptr %5, align 8
  store i32 1, ptr %14, align 4
  br label %135

135:                                              ; preds = %133, %132
  call void @llvm.lifetime.end.p0(i64 8, ptr %12) #14
  call void @llvm.lifetime.end.p0(i64 8, ptr %11) #14
  call void @llvm.lifetime.end.p0(i64 4, ptr %10) #14
  %136 = load ptr, ptr %5, align 8
  ret ptr %136

137:                                              ; preds = %99
  unreachable
}