; Function Attrs: nounwind uwtable
define dso_local ptr @ACLMergeSelectorArguments(ptr noundef readonly captures(none) %0, i32 noundef %1, ptr noundef captures(none) initializes((0, 4)) %2, ptr noundef writeonly captures(address_is_null) %3) local_unnamed_addr #0 {
  store i32 0, ptr %2, align 4, !tbaa !102
  %5 = sext i32 %1 to i64
  %6 = shl nsw i64 %5, 3
  %7 = tail call noalias ptr @zmalloc(i64 noundef %6) #26
  %8 = icmp sgt i32 %1, 0
  br i1 %8, label %.lr.ph.preheader, label %._crit_edge.thread

.lr.ph.preheader:                                 ; preds = %4
  %wide.trip.count = zext nneg i32 %1 to i64
  br label %.lr.ph

._crit_edge:                                      ; preds = %84
  %.not = icmp eq i32 %.144, -1
  br i1 %.not, label %._crit_edge.thread, label %.preheader

.preheader:                                       ; preds = %._crit_edge
  %9 = load i32, ptr %2, align 4, !tbaa !102
  %10 = icmp sgt i32 %9, 0
  br i1 %10, label %.lr.ph57, label %._crit_edge58

.lr.ph:                                           ; preds = %.lr.ph.preheader, %84
  %indvars.iv = phi i64 [ 0, %.lr.ph.preheader ], [ %indvars.iv.next, %84 ]
  %.04252 = phi ptr [ null, %.lr.ph.preheader ], [ %.1, %84 ]
  %.04351 = phi i32 [ -1, %.lr.ph.preheader ], [ %.144, %84 ]
  %11 = getelementptr inbounds nuw ptr, ptr %0, i64 %indvars.iv
  %12 = load ptr, ptr %11, align 8, !tbaa !29
  %cond = icmp eq i32 %.04351, -1
  br i1 %cond, label %13, label %45

13:                                               ; preds = %.lr.ph
  %14 = load i8, ptr %12, align 1, !tbaa !19
  %15 = icmp eq i8 %14, 40
  br i1 %15, label %16, label %78

16:                                               ; preds = %13
  %17 = getelementptr inbounds i8, ptr %12, i64 -1
  %18 = load i8, ptr %17, align 1, !tbaa !19
  %19 = zext i8 %18 to i32
  %20 = and i32 %19, 7
  switch i32 %20, label %sdslen.exit [
    i32 0, label %21
    i32 1, label %24
    i32 2, label %28
    i32 3, label %32
    i32 4, label %36
  ]

21:                                               ; preds = %16
  %22 = lshr i32 %19, 3
  %23 = zext nneg i32 %22 to i64
  br label %sdslen.exit

24:                                               ; preds = %16
  %25 = getelementptr inbounds i8, ptr %12, i64 -3
  %26 = load i8, ptr %25, align 1, !tbaa !19
  %27 = zext i8 %26 to i64
  br label %sdslen.exit

28:                                               ; preds = %16
  %29 = getelementptr inbounds i8, ptr %12, i64 -5
  %30 = load i16, ptr %29, align 1, !tbaa !26
  %31 = zext i16 %30 to i64
  br label %sdslen.exit

32:                                               ; preds = %16
  %33 = getelementptr inbounds i8, ptr %12, i64 -9
  %34 = load i32, ptr %33, align 1, !tbaa !102
  %35 = zext i32 %34 to i64
  br label %sdslen.exit

36:                                               ; preds = %16
  %37 = getelementptr inbounds i8, ptr %12, i64 -17
  %38 = load i64, ptr %37, align 1, !tbaa !5
  br label %sdslen.exit

sdslen.exit:                                      ; preds = %16, %21, %24, %28, %32, %36
  %.0.i = phi i64 [ %38, %36 ], [ %35, %32 ], [ %31, %28 ], [ %27, %24 ], [ %23, %21 ], [ 0, %16 ]
  %39 = getelementptr i8, ptr %12, i64 %.0.i
  %40 = getelementptr i8, ptr %39, i64 -1
  %41 = load i8, ptr %40, align 1, !tbaa !19
  %.not47 = icmp eq i8 %41, 41
  br i1 %.not47, label %78, label %42

42:                                               ; preds = %sdslen.exit
  %43 = tail call ptr @sdsdup(ptr noundef nonnull %12) #25
  %44 = trunc nuw nsw i64 %indvars.iv to i32
  br label %84

45:                                               ; preds = %.lr.ph
  %46 = tail call ptr (ptr, ptr, ...) @sdscatfmt(ptr noundef %.04252, ptr noundef nonnull @.str.90, ptr noundef %12) #25
  %47 = getelementptr inbounds i8, ptr %12, i64 -1
  %48 = load i8, ptr %47, align 1, !tbaa !19
  %49 = zext i8 %48 to i32
  %50 = and i32 %49, 7
  switch i32 %50, label %sdslen.exit50 [
    i32 0, label %51
    i32 1, label %54
    i32 2, label %58
    i32 3, label %62
    i32 4, label %66
  ]

51:                                               ; preds = %45
  %52 = lshr i32 %49, 3
  %53 = zext nneg i32 %52 to i64
  br label %sdslen.exit50

54:                                               ; preds = %45
  %55 = getelementptr inbounds i8, ptr %12, i64 -3
  %56 = load i8, ptr %55, align 1, !tbaa !19
  %57 = zext i8 %56 to i64
  br label %sdslen.exit50

58:                                               ; preds = %45
  %59 = getelementptr inbounds i8, ptr %12, i64 -5
  %60 = load i16, ptr %59, align 1, !tbaa !26
  %61 = zext i16 %60 to i64
  br label %sdslen.exit50

62:                                               ; preds = %45
  %63 = getelementptr inbounds i8, ptr %12, i64 -9
  %64 = load i32, ptr %63, align 1, !tbaa !102
  %65 = zext i32 %64 to i64
  br label %sdslen.exit50

66:                                               ; preds = %45
  %67 = getelementptr inbounds i8, ptr %12, i64 -17
  %68 = load i64, ptr %67, align 1, !tbaa !5
  br label %sdslen.exit50

sdslen.exit50:                                    ; preds = %45, %51, %54, %58, %62, %66
  %.0.i49 = phi i64 [ %68, %66 ], [ %65, %62 ], [ %61, %58 ], [ %57, %54 ], [ %53, %51 ], [ 0, %45 ]
  %69 = getelementptr i8, ptr %12, i64 %.0.i49
  %70 = getelementptr i8, ptr %69, i64 -1
  %71 = load i8, ptr %70, align 1, !tbaa !19
  %72 = icmp eq i8 %71, 41
  br i1 %72, label %73, label %84

73:                                               ; preds = %sdslen.exit50
  %74 = load i32, ptr %2, align 4, !tbaa !102
  %75 = sext i32 %74 to i64
  %76 = getelementptr inbounds ptr, ptr %7, i64 %75
  store ptr %46, ptr %76, align 8, !tbaa !29
  %77 = add nsw i32 %74, 1
  store i32 %77, ptr %2, align 4, !tbaa !102
  br label %84

78:                                               ; preds = %13, %sdslen.exit
  %79 = tail call ptr @sdsdup(ptr noundef nonnull %12) #25
  %80 = load i32, ptr %2, align 4, !tbaa !102
  %81 = sext i32 %80 to i64
  %82 = getelementptr inbounds ptr, ptr %7, i64 %81
  store ptr %79, ptr %82, align 8, !tbaa !29
  %83 = add nsw i32 %80, 1
  store i32 %83, ptr %2, align 4, !tbaa !102
  br label %84

84:                                               ; preds = %sdslen.exit50, %73, %78, %42
  %.144 = phi i32 [ %44, %42 ], [ -1, %78 ], [ -1, %73 ], [ %.04351, %sdslen.exit50 ]
  %.1 = phi ptr [ %43, %42 ], [ %.04252, %78 ], [ %46, %73 ], [ %46, %sdslen.exit50 ]
  %indvars.iv.next = add nuw nsw i64 %indvars.iv, 1
  %exitcond.not = icmp eq i64 %indvars.iv.next, %wide.trip.count
  br i1 %exitcond.not, label %._crit_edge, label %.lr.ph, !llvm.loop !198

._crit_edge58:                                    ; preds = %.lr.ph57, %.preheader
  tail call void @zfree(ptr noundef %7) #25
  tail call void @sdsfree(ptr noundef %.1) #25
  %.not46 = icmp eq ptr %3, null
  br i1 %.not46, label %._crit_edge.thread, label %90

.lr.ph57:                                         ; preds = %.preheader, %.lr.ph57
  %indvars.iv60 = phi i64 [ %indvars.iv.next61, %.lr.ph57 ], [ 0, %.preheader ]
  %85 = getelementptr inbounds nuw ptr, ptr %7, i64 %indvars.iv60
  %86 = load ptr, ptr %85, align 8, !tbaa !29
  tail call void @sdsfree(ptr noundef %86) #25
  %indvars.iv.next61 = add nuw nsw i64 %indvars.iv60, 1
  %87 = load i32, ptr %2, align 4, !tbaa !102
  %88 = sext i32 %87 to i64
  %89 = icmp slt i64 %indvars.iv.next61, %88
  br i1 %89, label %.lr.ph57, label %._crit_edge58, !llvm.loop !199

90:                                               ; preds = %._crit_edge58
  store i32 %.144, ptr %3, align 4, !tbaa !102
  br label %._crit_edge.thread

._crit_edge.thread:                               ; preds = %4, %._crit_edge, %._crit_edge58, %90
  %.040 = phi ptr [ null, %90 ], [ null, %._crit_edge58 ], [ %7, %._crit_edge ], [ %7, %4 ]
  ret ptr %.040
}